; Function Attrs: nounwind uwtable
define void @Gia_ManReadSimInfoInputs(ptr noundef %0, ptr noundef %1, i32 noundef %2) local_unnamed_addr #0 {
  %4 = alloca ptr, align 8
  call void @llvm.lifetime.start.p0(i64 8, ptr nonnull %4) #24
  %5 = call i32 @Vec_WrdReadText2(ptr noundef %0, ptr noundef nonnull %4)
  %6 = load ptr, ptr %4, align 8, !tbaa !66
  %7 = tail call noalias ptr @fopen(ptr noundef %1, ptr noundef nonnull @.str.40)
  %8 = icmp eq ptr %7, null
  br i1 %8, label %9, label %11

9:                                                ; preds = %3
  %10 = tail call i32 (ptr, ...) @printf(ptr noundef nonnull dereferenceable(1) @.str.41, ptr noundef %1)
  br label %Vec_WrdDumpBin.exit

11:                                               ; preds = %3
  %12 = getelementptr i8, ptr %6, i64 8
  %.val.i = load ptr, ptr %12, align 8, !tbaa !59
  %13 = getelementptr i8, ptr %6, i64 4
  %.val12.i = load i32, ptr %13, align 4, !tbaa !60
  %14 = shl nsw i32 %.val12.i, 3
  %15 = sext i32 %14 to i64
  %16 = tail call i64 @fwrite(ptr noundef %.val.i, i64 noundef 1, i64 noundef %15, ptr noundef nonnull %7)
  %17 = trunc i64 %16 to i32
  %18 = tail call i32 @fclose(ptr noundef nonnull %7)
  %.val13.i = load i32, ptr %13, align 4, !tbaa !60
  %19 = shl nsw i32 %.val13.i, 3
  %.not.i = icmp eq i32 %19, %17
  br i1 %.not.i, label %21, label %20

20:                                               ; preds = %11
  %puts.i = tail call i32 @puts(ptr nonnull dereferenceable(1) @str.1)
  br label %21

21:                                               ; preds = %20, %11
  %.not11.i = icmp eq i32 %2, 0
  br i1 %.not11.i, label %Vec_WrdDumpBin.exit, label %22

22:                                               ; preds = %21
  %.val14.i = load i32, ptr %13, align 4, !tbaa !60
  %23 = tail call i32 (ptr, ...) @printf(ptr noundef nonnull dereferenceable(1) @.str.43, i32 noundef %.val14.i, ptr noundef %1)
  br label %Vec_WrdDumpBin.exit

Vec_WrdDumpBin.exit:                              ; preds = %9, %21, %22
  %24 = getelementptr inbounds nuw i8, ptr %6, i64 8
  %25 = load ptr, ptr %24, align 8, !tbaa !59
  %.not.i2 = icmp eq ptr %25, null
  br i1 %.not.i2, label %Vec_WrdFree.exit, label %26

26:                                               ; preds = %Vec_WrdDumpBin.exit
  tail call void @free(ptr noundef nonnull %25) #24
  br label %Vec_WrdFree.exit

Vec_WrdFree.exit:                                 ; preds = %Vec_WrdDumpBin.exit, %26
  tail call void @free(ptr noundef nonnull %6) #24
  call void @llvm.lifetime.end.p0(i64 8, ptr nonnull %4) #24
  ret void
}